target datalayout = "e-m:e-p270:32:32-p271:32:32-p272:64:64-i64:64-i128:128-f80:128-n8:16:32:64-S128"
target triple = "x86_64-pc-linux-gnu"

@ett_lcp_nomdataencap_opt = internal global i32 0, align 4
@proto_lcp_option_nomdataencap = internal global i32 0, align 4

; Function Attrs: null_pointer_is_valid sspstrong uwtable
define internal i32 @dissect_lcp_simple_opt(ptr noundef %0, ptr noundef %1, ptr noundef %2, i32 noundef %3, i32 noundef %4) #1 {
  %6 = alloca ptr, align 8
  %7 = alloca ptr, align 8
  %8 = alloca ptr, align 8
  %9 = alloca i32, align 4
  %10 = alloca i32, align 4
  %11 = alloca ptr, align 8
  %12 = alloca ptr, align 8
  store ptr %0, ptr %6, align 8
  store ptr %1, ptr %7, align 8
  store ptr %2, ptr %8, align 8
  store i32 %3, ptr %9, align 4
  store i32 %4, ptr %10, align 4
  call void @llvm.lifetime.start.p0(i64 8, ptr %11) #6
  call void @llvm.lifetime.start.p0(i64 8, ptr %12) #6
  %13 = load ptr, ptr %6, align 8
  %14 = load ptr, ptr %7, align 8
  %15 = load ptr, ptr %8, align 8
  %16 = load i32, ptr %9, align 4
  %17 = load i32, ptr %10, align 4
  %18 = call zeroext i1 @dissect_lcp_fixed_opt(ptr noundef %13, ptr noundef %14, ptr noundef %15, i32 noundef %16, i32 noundef %17, i32 noundef 2, ptr noundef %11, ptr noundef %12)
  %19 = load ptr, ptr %6, align 8
  %20 = call i32 @tvb_captured_length(ptr noundef %19)
  call void @llvm.lifetime.end.p0(i64 8, ptr %12) #6
  call void @llvm.lifetime.end.p0(i64 8, ptr %11) #6
  ret i32 %20
}

; Function Attrs: null_pointer_is_valid sspstrong uwtable
define internal i32 @dissect_lcp_nomdataencap_opt(ptr noundef %0, ptr noundef %1, ptr noundef %2, ptr noundef %3) #1 {
  %5 = alloca ptr, align 8
  %6 = alloca ptr, align 8
  %7 = alloca ptr, align 8
  %8 = alloca ptr, align 8
  store ptr %0, ptr %5, align 8
  store ptr %1, ptr %6, align 8
  store ptr %2, ptr %7, align 8
  store ptr %3, ptr %8, align 8
  %9 = load ptr, ptr %5, align 8
  %10 = load ptr, ptr %6, align 8
  %11 = load ptr, ptr %7, align 8
  %12 = load i32, ptr @proto_lcp_option_nomdataencap, align 4
  %13 = load i32, ptr @ett_lcp_nomdataencap_opt, align 4
  %14 = call i32 @dissect_lcp_simple_opt(ptr noundef %9, ptr noundef %10, ptr noundef %11, i32 noundef %12, i32 noundef %13)
  ret i32 %14
}